; ModuleID = '11/1013.c'
source_filename = "11/1013.c"
target datalayout = "e-m:e-p270:32:32-p271:32:32-p272:64:64-i64:64-f80:128-n8:16:32:64-S128"
target triple = "x86_64-pc-linux-gnu"

@.str = private unnamed_addr constant [7 x i8] c"%d%d%d\00", align 1
@__const.main.days1 = private unnamed_addr constant [13 x i32] [i32 0, i32 31, i32 28, i32 31, i32 30, i32 31, i32 30, i32 31, i32 31, i32 30, i32 31, i32 30, i32 31], align 16
@.str.1 = private unnamed_addr constant [3 x i8] c"%d\00", align 1
@__const.main.days2 = private unnamed_addr constant [13 x i32] [i32 0, i32 31, i32 29, i32 31, i32 30, i32 31, i32 30, i32 31, i32 31, i32 30, i32 31, i32 30, i32 31], align 16

; Function Attrs: noinline nounwind uwtable
define dso_local i32 @main() #0 {
  %1 = alloca i32, align 4
  %2 = alloca i32, align 4
  %3 = alloca i32, align 4
  %4 = alloca i32, align 4
  %5 = alloca i32, align 4
  %6 = alloca i32, align 4
  %7 = alloca [13 x i32], align 16
  %8 = alloca [13 x i32], align 16
  store i32 0, i32* %1, align 4
  %9 = call i32 (i8*, ...) @__isoc99_scanf(i8* getelementptr inbounds ([7 x i8], [7 x i8]* @.str, i64 0, i64 0), i32* %2, i32* %3, i32* %4)
  %10 = load i32, i32* %2, align 4
  %11 = call i32 @check(i32 %10)
  store i32 %11, i32* %5, align 4
  %12 = load i32, i32* %5, align 4
  %13 = icmp eq i32 %12, 1
  br i1 %13, label %14, label %22

14:                                               ; preds = %0
  %15 = bitcast [13 x i32]* %7 to i8*
  call void @llvm.memcpy.p0i8.p0i8.i64(i8* align 16 %15, i8* align 16 bitcast ([13 x i32]* @__const.main.days1 to i8*), i64 52, i1 false)
  %16 = getelementptr inbounds [13 x i32], [13 x i32]* %7, i64 0, i64 0
  %17 = load i32, i32* %3, align 4
  %18 = load i32, i32* %4, align 4
  %19 = call i32 @count(i32* %16, i32 %17, i32 %18)
  store i32 %19, i32* %6, align 4
  %20 = load i32, i32* %6, align 4
  %21 = call i32 (i8*, ...) @printf(i8* getelementptr inbounds ([3 x i8], [3 x i8]* @.str.1, i64 0, i64 0), i32 %20)
  br label %30

22:                                               ; preds = %0
  %23 = bitcast [13 x i32]* %8 to i8*
  call void @llvm.memcpy.p0i8.p0i8.i64(i8* align 16 %23, i8* align 16 bitcast ([13 x i32]* @__const.main.days2 to i8*), i64 52, i1 false)
  %24 = getelementptr inbounds [13 x i32], [13 x i32]* %8, i64 0, i64 0
  %25 = load i32, i32* %3, align 4
  %26 = load i32, i32* %4, align 4
  %27 = call i32 @count(i32* %24, i32 %25, i32 %26)
  store i32 %27, i32* %6, align 4
  %28 = load i32, i32* %6, align 4
  %29 = call i32 (i8*, ...) @printf(i8* getelementptr inbounds ([3 x i8], [3 x i8]* @.str.1, i64 0, i64 0), i32 %28)
  br label %30

30:                                               ; preds = %22, %14
  ret i32 0
}

declare dso_local i32 @__isoc99_scanf(i8*, ...) #1

; Function Attrs: noinline nounwind uwtable
define dso_local i32 @check(i32 %0) #0 {
  %2 = alloca i32, align 4
  %3 = alloca i32, align 4
  %4 = alloca i32, align 4
  %5 = alloca i32, align 4
  %6 = alloca i32, align 4
  store i32 %0, i32* %3, align 4
  %7 = load i32, i32* %3, align 4
  %8 = srem i32 %7, 4
  store i32 %8, i32* %4, align 4
  %9 = load i32, i32* %3, align 4
  %10 = srem i32 %9, 100
  store i32 %10, i32* %5, align 4
  %11 = load i32, i32* %3, align 4
  %12 = srem i32 %11, 400
  store i32 %12, i32* %6, align 4
  %13 = load i32, i32* %4, align 4
  %14 = icmp ne i32 %13, 0
  br i1 %14, label %15, label %16

15:                                               ; preds = %1
  store i32 1, i32* %2, align 4
  br label %24

16:                                               ; preds = %1
  %17 = load i32, i32* %5, align 4
  %18 = icmp eq i32 %17, 0
  br i1 %18, label %19, label %23

19:                                               ; preds = %16
  %20 = load i32, i32* %6, align 4
  %21 = icmp ne i32 %20, 0
  br i1 %21, label %22, label %23

22:                                               ; preds = %19
  store i32 1, i32* %2, align 4
  br label %24

23:                                               ; preds = %19, %16
  store i32 0, i32* %2, align 4
  br label %24

24:                                               ; preds = %23, %22, %15
  %25 = load i32, i32* %2, align 4
  ret i32 %25
}

; Function Attrs: argmemonly nounwind willreturn
declare void @llvm.memcpy.p0i8.p0i8.i64(i8* noalias nocapture writeonly, i8* noalias nocapture readonly, i64, i1 immarg) #2

; Function Attrs: noinline nounwind uwtable
define dso_local i32 @count(i32* %0, i32 %1, i32 %2) #0 {
  %4 = alloca i32*, align 8
  %5 = alloca i32, align 4
  %6 = alloca i32, align 4
  %7 = alloca i32, align 4
  %8 = alloca i32, align 4
  store i32* %0, i32** %4, align 8
  store i32 %1, i32* %5, align 4
  store i32 %2, i32* %6, align 4
  store i32 0, i32* %7, align 4
  store i32 1, i32* %8, align 4
  br label %9

9:                                                ; preds = %21, %3
  %10 = load i32, i32* %8, align 4
  %11 = load i32, i32* %5, align 4
  %12 = icmp slt i32 %10, %11
  br i1 %12, label %13, label %24

13:                                               ; preds = %9
  %14 = load i32, i32* %7, align 4
  %15 = load i32*, i32** %4, align 8
  %16 = load i32, i32* %8, align 4
  %17 = sext i32 %16 to i64
  %18 = getelementptr inbounds i32, i32* %15, i64 %17
  %19 = load i32, i32* %18, align 4
  %20 = add nsw i32 %14, %19
  store i32 %20, i32* %7, align 4
  br label %21

21:                                               ; preds = %13
  %22 = load i32, i32* %8, align 4
  %23 = add nsw i32 %22, 1
  store i32 %23, i32* %8, align 4
  br label %9

24:                                               ; preds = %9
  %25 = load i32, i32* %7, align 4
  %26 = load i32, i32* %6, align 4
  %27 = add nsw i32 %25, %26
  store i32 %27, i32* %7, align 4
  %28 = load i32, i32* %7, align 4
  ret i32 %28
}

declare dso_local i32 @printf(i8*, ...) #1


!llvm.module.flags = !{!0}
!llvm.ident = !{!1}

!0 = !{i32 1, !"wchar_size", i32 4}
!1 = !{!"clang version 10.0.0-4ubuntu1 "}
