; ModuleID = 'source-C-CXX/10/1013.c'
source_filename = "source-C-CXX/10/1013.c"
target datalayout = "e-m:e-p270:32:32-p271:32:32-p272:64:64-i64:64-f80:128-n8:16:32:64-S128"
target triple = "x86_64-pc-linux-gnu"

@.str = private unnamed_addr constant [7 x i8] c"%d%d%d\00", align 1
@__const.main.days1 = private unnamed_addr constant [13 x i32] [i32 0, i32 31, i32 28, i32 31, i32 30, i32 31, i32 30, i32 31, i32 31, i32 30, i32 31, i32 30, i32 31], align 16
@.str.1 = private unnamed_addr constant [3 x i8] c"%d\00", align 1
@__const.main.days2 = private unnamed_addr constant [13 x i32] [i32 0, i32 31, i32 29, i32 31, i32 30, i32 31, i32 30, i32 31, i32 31, i32 30, i32 31, i32 30, i32 31], align 16

; Function Attrs: nofree nounwind sspstrong uwtable
define dso_local i32 @main() local_unnamed_addr #0 {
  %1 = alloca i32, align 4
  %2 = alloca i32, align 4
  %3 = alloca i32, align 4
  %4 = bitcast i32* %1 to i8*
  call void @llvm.lifetime.start.p0i8(i64 4, i8* nonnull %4) #6
  %5 = bitcast i32* %2 to i8*
  call void @llvm.lifetime.start.p0i8(i64 4, i8* nonnull %5) #6
  %6 = bitcast i32* %3 to i8*
  call void @llvm.lifetime.start.p0i8(i64 4, i8* nonnull %6) #6
  %7 = call i32 (i8*, ...) @__isoc99_scanf(i8* getelementptr inbounds ([7 x i8], [7 x i8]* @.str, i64 0, i64 0), i32* nonnull %1, i32* nonnull %2, i32* nonnull %3)
  %8 = load i32, i32* %1, align 4, !tbaa !5
  %9 = and i32 %8, 3
  %10 = icmp eq i32 %9, 0
  br i1 %10, label %11, label %17

11:                                               ; preds = %0
  %12 = srem i32 %8, 400
  %13 = srem i32 %8, 100
  %14 = icmp eq i32 %13, 0
  %15 = icmp ne i32 %12, 0
  %16 = and i1 %14, %15
  br i1 %16, label %17, label %99

17:                                               ; preds = %0, %11
  %18 = load i32, i32* %2, align 4, !tbaa !5
  %19 = load i32, i32* %3, align 4, !tbaa !5
  %20 = icmp sgt i32 %18, 1
  br i1 %20, label %21, label %96

21:                                               ; preds = %17
  %22 = zext i32 %18 to i64
  %23 = add nsw i64 %22, -1
  %24 = icmp ult i64 %23, 8
  br i1 %24, label %85, label %25

25:                                               ; preds = %21
  %26 = and i64 %23, -8
  %27 = or i64 %26, 1
  %28 = add nsw i64 %26, -8
  %29 = lshr exact i64 %28, 3
  %30 = add nuw nsw i64 %29, 1
  %31 = and i64 %30, 1
  %32 = icmp eq i64 %28, 0
  br i1 %32, label %63, label %33

33:                                               ; preds = %25
  %34 = and i64 %30, 4611686018427387902
  br label %35

35:                                               ; preds = %35, %33
  %36 = phi i64 [ 0, %33 ], [ %58, %35 ]
  %37 = phi <4 x i32> [ zeroinitializer, %33 ], [ %56, %35 ]
  %38 = phi <4 x i32> [ zeroinitializer, %33 ], [ %57, %35 ]
  %39 = phi i64 [ %34, %33 ], [ %59, %35 ]
  %40 = or i64 %36, 1
  %41 = getelementptr inbounds [13 x i32], [13 x i32]* @__const.main.days1, i64 0, i64 %40
  %42 = bitcast i32* %41 to <4 x i32>*
  %43 = load <4 x i32>, <4 x i32>* %42, align 4, !tbaa !5
  %44 = getelementptr inbounds i32, i32* %41, i64 4
  %45 = bitcast i32* %44 to <4 x i32>*
  %46 = load <4 x i32>, <4 x i32>* %45, align 4, !tbaa !5
  %47 = add <4 x i32> %43, %37
  %48 = add <4 x i32> %46, %38
  %49 = or i64 %36, 9
  %50 = getelementptr inbounds [13 x i32], [13 x i32]* @__const.main.days1, i64 0, i64 %49
  %51 = bitcast i32* %50 to <4 x i32>*
  %52 = load <4 x i32>, <4 x i32>* %51, align 4, !tbaa !5
  %53 = getelementptr inbounds i32, i32* %50, i64 4
  %54 = bitcast i32* %53 to <4 x i32>*
  %55 = load <4 x i32>, <4 x i32>* %54, align 4, !tbaa !5
  %56 = add <4 x i32> %52, %47
  %57 = add <4 x i32> %55, %48
  %58 = add nuw i64 %36, 16
  %59 = add i64 %39, -2
  %60 = icmp eq i64 %59, 0
  br i1 %60, label %61, label %35, !llvm.loop !9

61:                                               ; preds = %35
  %62 = or i64 %58, 1
  br label %63

63:                                               ; preds = %61, %25
  %64 = phi <4 x i32> [ undef, %25 ], [ %56, %61 ]
  %65 = phi <4 x i32> [ undef, %25 ], [ %57, %61 ]
  %66 = phi i64 [ 1, %25 ], [ %62, %61 ]
  %67 = phi <4 x i32> [ zeroinitializer, %25 ], [ %56, %61 ]
  %68 = phi <4 x i32> [ zeroinitializer, %25 ], [ %57, %61 ]
  %69 = icmp eq i64 %31, 0
  br i1 %69, label %79, label %70

70:                                               ; preds = %63
  %71 = getelementptr inbounds [13 x i32], [13 x i32]* @__const.main.days1, i64 0, i64 %66
  %72 = getelementptr inbounds i32, i32* %71, i64 4
  %73 = bitcast i32* %72 to <4 x i32>*
  %74 = load <4 x i32>, <4 x i32>* %73, align 4, !tbaa !5
  %75 = add <4 x i32> %74, %68
  %76 = bitcast i32* %71 to <4 x i32>*
  %77 = load <4 x i32>, <4 x i32>* %76, align 4, !tbaa !5
  %78 = add <4 x i32> %77, %67
  br label %79

79:                                               ; preds = %63, %70
  %80 = phi <4 x i32> [ %64, %63 ], [ %78, %70 ]
  %81 = phi <4 x i32> [ %65, %63 ], [ %75, %70 ]
  %82 = add <4 x i32> %81, %80
  %83 = call i32 @llvm.vector.reduce.add.v4i32(<4 x i32> %82)
  %84 = icmp eq i64 %23, %26
  br i1 %84, label %96, label %85

85:                                               ; preds = %21, %79
  %86 = phi i64 [ 1, %21 ], [ %27, %79 ]
  %87 = phi i32 [ 0, %21 ], [ %83, %79 ]
  br label %88

88:                                               ; preds = %85, %88
  %89 = phi i64 [ %94, %88 ], [ %86, %85 ]
  %90 = phi i32 [ %93, %88 ], [ %87, %85 ]
  %91 = getelementptr inbounds [13 x i32], [13 x i32]* @__const.main.days1, i64 0, i64 %89
  %92 = load i32, i32* %91, align 4, !tbaa !5
  %93 = add nsw i32 %92, %90
  %94 = add nuw nsw i64 %89, 1
  %95 = icmp eq i64 %94, %22
  br i1 %95, label %96, label %88, !llvm.loop !12

96:                                               ; preds = %88, %79, %17
  %97 = phi i32 [ 0, %17 ], [ %83, %79 ], [ %93, %88 ]
  %98 = add nsw i32 %97, %19
  br label %181

99:                                               ; preds = %11
  %100 = load i32, i32* %2, align 4, !tbaa !5
  %101 = load i32, i32* %3, align 4, !tbaa !5
  %102 = icmp sgt i32 %100, 1
  br i1 %102, label %103, label %178

103:                                              ; preds = %99
  %104 = zext i32 %100 to i64
  %105 = add nsw i64 %104, -1
  %106 = icmp ult i64 %105, 8
  br i1 %106, label %167, label %107

107:                                              ; preds = %103
  %108 = and i64 %105, -8
  %109 = or i64 %108, 1
  %110 = add nsw i64 %108, -8
  %111 = lshr exact i64 %110, 3
  %112 = add nuw nsw i64 %111, 1
  %113 = and i64 %112, 1
  %114 = icmp eq i64 %110, 0
  br i1 %114, label %145, label %115

115:                                              ; preds = %107
  %116 = and i64 %112, 4611686018427387902
  br label %117

117:                                              ; preds = %117, %115
  %118 = phi i64 [ 0, %115 ], [ %140, %117 ]
  %119 = phi <4 x i32> [ zeroinitializer, %115 ], [ %138, %117 ]
  %120 = phi <4 x i32> [ zeroinitializer, %115 ], [ %139, %117 ]
  %121 = phi i64 [ %116, %115 ], [ %141, %117 ]
  %122 = or i64 %118, 1
  %123 = getelementptr inbounds [13 x i32], [13 x i32]* @__const.main.days2, i64 0, i64 %122
  %124 = bitcast i32* %123 to <4 x i32>*
  %125 = load <4 x i32>, <4 x i32>* %124, align 4, !tbaa !5
  %126 = getelementptr inbounds i32, i32* %123, i64 4
  %127 = bitcast i32* %126 to <4 x i32>*
  %128 = load <4 x i32>, <4 x i32>* %127, align 4, !tbaa !5
  %129 = add <4 x i32> %125, %119
  %130 = add <4 x i32> %128, %120
  %131 = or i64 %118, 9
  %132 = getelementptr inbounds [13 x i32], [13 x i32]* @__const.main.days2, i64 0, i64 %131
  %133 = bitcast i32* %132 to <4 x i32>*
  %134 = load <4 x i32>, <4 x i32>* %133, align 4, !tbaa !5
  %135 = getelementptr inbounds i32, i32* %132, i64 4
  %136 = bitcast i32* %135 to <4 x i32>*
  %137 = load <4 x i32>, <4 x i32>* %136, align 4, !tbaa !5
  %138 = add <4 x i32> %134, %129
  %139 = add <4 x i32> %137, %130
  %140 = add nuw i64 %118, 16
  %141 = add i64 %121, -2
  %142 = icmp eq i64 %141, 0
  br i1 %142, label %143, label %117, !llvm.loop !14

143:                                              ; preds = %117
  %144 = or i64 %140, 1
  br label %145

145:                                              ; preds = %143, %107
  %146 = phi <4 x i32> [ undef, %107 ], [ %138, %143 ]
  %147 = phi <4 x i32> [ undef, %107 ], [ %139, %143 ]
  %148 = phi i64 [ 1, %107 ], [ %144, %143 ]
  %149 = phi <4 x i32> [ zeroinitializer, %107 ], [ %138, %143 ]
  %150 = phi <4 x i32> [ zeroinitializer, %107 ], [ %139, %143 ]
  %151 = icmp eq i64 %113, 0
  br i1 %151, label %161, label %152

152:                                              ; preds = %145
  %153 = getelementptr inbounds [13 x i32], [13 x i32]* @__const.main.days2, i64 0, i64 %148
  %154 = getelementptr inbounds i32, i32* %153, i64 4
  %155 = bitcast i32* %154 to <4 x i32>*
  %156 = load <4 x i32>, <4 x i32>* %155, align 4, !tbaa !5
  %157 = add <4 x i32> %156, %150
  %158 = bitcast i32* %153 to <4 x i32>*
  %159 = load <4 x i32>, <4 x i32>* %158, align 4, !tbaa !5
  %160 = add <4 x i32> %159, %149
  br label %161

161:                                              ; preds = %145, %152
  %162 = phi <4 x i32> [ %146, %145 ], [ %160, %152 ]
  %163 = phi <4 x i32> [ %147, %145 ], [ %157, %152 ]
  %164 = add <4 x i32> %163, %162
  %165 = call i32 @llvm.vector.reduce.add.v4i32(<4 x i32> %164)
  %166 = icmp eq i64 %105, %108
  br i1 %166, label %178, label %167

167:                                              ; preds = %103, %161
  %168 = phi i64 [ 1, %103 ], [ %109, %161 ]
  %169 = phi i32 [ 0, %103 ], [ %165, %161 ]
  br label %170

170:                                              ; preds = %167, %170
  %171 = phi i64 [ %176, %170 ], [ %168, %167 ]
  %172 = phi i32 [ %175, %170 ], [ %169, %167 ]
  %173 = getelementptr inbounds [13 x i32], [13 x i32]* @__const.main.days2, i64 0, i64 %171
  %174 = load i32, i32* %173, align 4, !tbaa !5
  %175 = add nsw i32 %174, %172
  %176 = add nuw nsw i64 %171, 1
  %177 = icmp eq i64 %176, %104
  br i1 %177, label %178, label %170, !llvm.loop !15

178:                                              ; preds = %170, %161, %99
  %179 = phi i32 [ 0, %99 ], [ %165, %161 ], [ %175, %170 ]
  %180 = add nsw i32 %179, %101
  br label %181

181:                                              ; preds = %178, %96
  %182 = phi i32 [ %180, %178 ], [ %98, %96 ]
  %183 = call i32 (i8*, ...) @printf(i8* nonnull dereferenceable(1) getelementptr inbounds ([3 x i8], [3 x i8]* @.str.1, i64 0, i64 0), i32 %182)
  call void @llvm.lifetime.end.p0i8(i64 4, i8* nonnull %6) #6
  call void @llvm.lifetime.end.p0i8(i64 4, i8* nonnull %5) #6
  call void @llvm.lifetime.end.p0i8(i64 4, i8* nonnull %4) #6
  ret i32 0
}

; Function Attrs: argmemonly mustprogress nofree nosync nounwind willreturn
declare void @llvm.lifetime.start.p0i8(i64 immarg, i8* nocapture) #1

; Function Attrs: nofree nounwind
declare noundef i32 @__isoc99_scanf(i8* nocapture noundef readonly, ...) local_unnamed_addr #2

; Function Attrs: mustprogress nofree norecurse nosync nounwind readnone sspstrong uwtable willreturn
define dso_local i32 @check(i32 %0) local_unnamed_addr #3 {
  %2 = and i32 %0, 3
  %3 = icmp eq i32 %2, 0
  br i1 %3, label %4, label %11

4:                                                ; preds = %1
  %5 = srem i32 %0, 400
  %6 = srem i32 %0, 100
  %7 = icmp eq i32 %6, 0
  %8 = icmp ne i32 %5, 0
  %9 = and i1 %7, %8
  %10 = zext i1 %9 to i32
  br label %11

11:                                               ; preds = %4, %1
  %12 = phi i32 [ 1, %1 ], [ %10, %4 ]
  ret i32 %12
}

; Function Attrs: nofree norecurse nosync nounwind readonly sspstrong uwtable
define dso_local i32 @count(i32* nocapture readonly %0, i32 %1, i32 %2) local_unnamed_addr #4 {
  %4 = icmp sgt i32 %1, 1
  br i1 %4, label %5, label %104

5:                                                ; preds = %3
  %6 = zext i32 %1 to i64
  %7 = add nsw i64 %6, -1
  %8 = icmp ult i64 %7, 8
  br i1 %8, label %93, label %9

9:                                                ; preds = %5
  %10 = and i64 %7, -8
  %11 = or i64 %10, 1
  %12 = add nsw i64 %10, -8
  %13 = lshr exact i64 %12, 3
  %14 = add nuw nsw i64 %13, 1
  %15 = and i64 %14, 3
  %16 = icmp ult i64 %12, 24
  br i1 %16, label %63, label %17

17:                                               ; preds = %9
  %18 = and i64 %14, 4611686018427387900
  br label %19

19:                                               ; preds = %19, %17
  %20 = phi i64 [ 0, %17 ], [ %60, %19 ]
  %21 = phi <4 x i32> [ zeroinitializer, %17 ], [ %58, %19 ]
  %22 = phi <4 x i32> [ zeroinitializer, %17 ], [ %59, %19 ]
  %23 = phi i64 [ %18, %17 ], [ %61, %19 ]
  %24 = or i64 %20, 1
  %25 = getelementptr inbounds i32, i32* %0, i64 %24
  %26 = bitcast i32* %25 to <4 x i32>*
  %27 = load <4 x i32>, <4 x i32>* %26, align 4, !tbaa !5
  %28 = getelementptr inbounds i32, i32* %25, i64 4
  %29 = bitcast i32* %28 to <4 x i32>*
  %30 = load <4 x i32>, <4 x i32>* %29, align 4, !tbaa !5
  %31 = add <4 x i32> %27, %21
  %32 = add <4 x i32> %30, %22
  %33 = or i64 %20, 9
  %34 = getelementptr inbounds i32, i32* %0, i64 %33
  %35 = bitcast i32* %34 to <4 x i32>*
  %36 = load <4 x i32>, <4 x i32>* %35, align 4, !tbaa !5
  %37 = getelementptr inbounds i32, i32* %34, i64 4
  %38 = bitcast i32* %37 to <4 x i32>*
  %39 = load <4 x i32>, <4 x i32>* %38, align 4, !tbaa !5
  %40 = add <4 x i32> %36, %31
  %41 = add <4 x i32> %39, %32
  %42 = or i64 %20, 17
  %43 = getelementptr inbounds i32, i32* %0, i64 %42
  %44 = bitcast i32* %43 to <4 x i32>*
  %45 = load <4 x i32>, <4 x i32>* %44, align 4, !tbaa !5
  %46 = getelementptr inbounds i32, i32* %43, i64 4
  %47 = bitcast i32* %46 to <4 x i32>*
  %48 = load <4 x i32>, <4 x i32>* %47, align 4, !tbaa !5
  %49 = add <4 x i32> %45, %40
  %50 = add <4 x i32> %48, %41
  %51 = or i64 %20, 25
  %52 = getelementptr inbounds i32, i32* %0, i64 %51
  %53 = bitcast i32* %52 to <4 x i32>*
  %54 = load <4 x i32>, <4 x i32>* %53, align 4, !tbaa !5
  %55 = getelementptr inbounds i32, i32* %52, i64 4
  %56 = bitcast i32* %55 to <4 x i32>*
  %57 = load <4 x i32>, <4 x i32>* %56, align 4, !tbaa !5
  %58 = add <4 x i32> %54, %49
  %59 = add <4 x i32> %57, %50
  %60 = add nuw i64 %20, 32
  %61 = add i64 %23, -4
  %62 = icmp eq i64 %61, 0
  br i1 %62, label %63, label %19, !llvm.loop !16

63:                                               ; preds = %19, %9
  %64 = phi <4 x i32> [ undef, %9 ], [ %58, %19 ]
  %65 = phi <4 x i32> [ undef, %9 ], [ %59, %19 ]
  %66 = phi i64 [ 0, %9 ], [ %60, %19 ]
  %67 = phi <4 x i32> [ zeroinitializer, %9 ], [ %58, %19 ]
  %68 = phi <4 x i32> [ zeroinitializer, %9 ], [ %59, %19 ]
  %69 = icmp eq i64 %15, 0
  br i1 %69, label %87, label %70

70:                                               ; preds = %63, %70
  %71 = phi i64 [ %84, %70 ], [ %66, %63 ]
  %72 = phi <4 x i32> [ %82, %70 ], [ %67, %63 ]
  %73 = phi <4 x i32> [ %83, %70 ], [ %68, %63 ]
  %74 = phi i64 [ %85, %70 ], [ %15, %63 ]
  %75 = or i64 %71, 1
  %76 = getelementptr inbounds i32, i32* %0, i64 %75
  %77 = bitcast i32* %76 to <4 x i32>*
  %78 = load <4 x i32>, <4 x i32>* %77, align 4, !tbaa !5
  %79 = getelementptr inbounds i32, i32* %76, i64 4
  %80 = bitcast i32* %79 to <4 x i32>*
  %81 = load <4 x i32>, <4 x i32>* %80, align 4, !tbaa !5
  %82 = add <4 x i32> %78, %72
  %83 = add <4 x i32> %81, %73
  %84 = add nuw i64 %71, 8
  %85 = add i64 %74, -1
  %86 = icmp eq i64 %85, 0
  br i1 %86, label %87, label %70, !llvm.loop !17

87:                                               ; preds = %70, %63
  %88 = phi <4 x i32> [ %64, %63 ], [ %82, %70 ]
  %89 = phi <4 x i32> [ %65, %63 ], [ %83, %70 ]
  %90 = add <4 x i32> %89, %88
  %91 = call i32 @llvm.vector.reduce.add.v4i32(<4 x i32> %90)
  %92 = icmp eq i64 %7, %10
  br i1 %92, label %104, label %93

93:                                               ; preds = %5, %87
  %94 = phi i64 [ 1, %5 ], [ %11, %87 ]
  %95 = phi i32 [ 0, %5 ], [ %91, %87 ]
  br label %96

96:                                               ; preds = %93, %96
  %97 = phi i64 [ %102, %96 ], [ %94, %93 ]
  %98 = phi i32 [ %101, %96 ], [ %95, %93 ]
  %99 = getelementptr inbounds i32, i32* %0, i64 %97
  %100 = load i32, i32* %99, align 4, !tbaa !5
  %101 = add nsw i32 %100, %98
  %102 = add nuw nsw i64 %97, 1
  %103 = icmp eq i64 %102, %6
  br i1 %103, label %104, label %96, !llvm.loop !19

104:                                              ; preds = %96, %87, %3
  %105 = phi i32 [ 0, %3 ], [ %91, %87 ], [ %101, %96 ]
  %106 = add nsw i32 %105, %2
  ret i32 %106
}

; Function Attrs: nofree nounwind
declare noundef i32 @printf(i8* nocapture noundef readonly, ...) local_unnamed_addr #2

; Function Attrs: argmemonly mustprogress nofree nosync nounwind willreturn
declare void @llvm.lifetime.end.p0i8(i64 immarg, i8* nocapture) #1

; Function Attrs: nofree nosync nounwind readnone willreturn
declare i32 @llvm.vector.reduce.add.v4i32(<4 x i32>) #5


!llvm.module.flags = !{!0, !1, !2, !3}
!llvm.ident = !{!4}

!0 = !{i32 1, !"wchar_size", i32 4}
!1 = !{i32 7, !"PIC Level", i32 2}
!2 = !{i32 7, !"PIE Level", i32 2}
!3 = !{i32 7, !"uwtable", i32 1}
!4 = !{!"clang version 13.0.0"}
!5 = !{!6, !6, i64 0}
!6 = !{!"int", !7, i64 0}
!7 = !{!"omnipotent char", !8, i64 0}
!8 = !{!"Simple C/C++ TBAA"}
!9 = distinct !{!9, !10, !11}
!10 = !{!"llvm.loop.mustprogress"}
!11 = !{!"llvm.loop.isvectorized", i32 1}
!12 = distinct !{!12, !10, !13, !11}
!13 = !{!"llvm.loop.unroll.runtime.disable"}
!14 = distinct !{!14, !10, !11}
!15 = distinct !{!15, !10, !13, !11}
!16 = distinct !{!16, !10, !11}
!17 = distinct !{!17, !18}
!18 = !{!"llvm.loop.unroll.disable"}
!19 = distinct !{!19, !10, !13, !11}
